; Function Attrs: mustprogress uwtable
define void @_ZN2cv7quality11QualitySSIM9_mat_dataC2ERKNS_11_InputArrayE(ptr noundef nonnull align 8 dereferenceable(400) %0, ptr noundef nonnull align 8 dereferenceable(24) %1) unnamed_addr #0 align 2 personality ptr @__gxx_personality_v0 {
  %3 = alloca %"class.cv::_OutputArray", align 8
  %4 = alloca %"class.cv::UMat", align 8
  call void @llvm.lifetime.start.p0(i64 80, ptr nonnull %4) #17
  tail call void @llvm.experimental.noalias.scope.decl(metadata !19)
  call void @_ZN2cv7quality13quality_utils11extract_matINS_4UMatEEET_RKNS_11_InputArrayEi(ptr dead_on_unwind nonnull writable sret(%"class.cv::UMat") align 8 %4, ptr noundef nonnull align 8 dereferenceable(24) %1, i32 noundef -1)
  %5 = load i32, ptr %4, align 8, !tbaa !22, !alias.scope !19
  %6 = and i32 %5, 7
  %.off.i = add nsw i32 %6, -4
  %switch.i = icmp ult i32 %.off.i, 3
  %spec.select.i = select i1 %switch.i, i32 6, i32 5
  call void @llvm.lifetime.start.p0(i64 24, ptr nonnull %3) #17, !noalias !19
  %7 = getelementptr inbounds nuw i8, ptr %3, i64 8
  %8 = getelementptr inbounds nuw i8, ptr %3, i64 16
  store i64 0, ptr %8, align 8, !noalias !19
  store i32 34209792, ptr %3, align 8, !tbaa !9, !noalias !19
  store ptr %4, ptr %7, align 8, !tbaa !12, !noalias !19
  invoke void @_ZNK2cv4UMat9convertToERKNS_12_OutputArrayEidd(ptr noundef nonnull align 8 dereferenceable(80) %4, ptr noundef nonnull align 8 dereferenceable(24) %3, i32 noundef %spec.select.i, double noundef 1.000000e+00, double noundef 0.000000e+00)
          to label %_ZN2cv7quality13quality_utils10expand_matINS_4UMatEEET_RKNS_11_InputArrayEi.exit unwind label %9

common.resume:                                    ; preds = %12, %9
  %common.resume.op = phi { ptr, i32 } [ %10, %9 ], [ %13, %12 ]
  resume { ptr, i32 } %common.resume.op

9:                                                ; preds = %2
  %10 = landingpad { ptr, i32 }
          cleanup
  call void @llvm.lifetime.end.p0(i64 24, ptr nonnull %3) #17, !noalias !19
  call void @_ZN2cv4UMatD1Ev(ptr noundef nonnull align 8 dereferenceable(80) %4) #17
  br label %common.resume

_ZN2cv7quality13quality_utils10expand_matINS_4UMatEEET_RKNS_11_InputArrayEi.exit: ; preds = %2
  call void @llvm.lifetime.end.p0(i64 24, ptr nonnull %3) #17, !noalias !19
  invoke void @_ZN2cv7quality11QualitySSIM9_mat_dataC2ERKNS_4UMatE(ptr noundef nonnull align 8 dereferenceable(400) %0, ptr noundef nonnull align 8 dereferenceable(80) %4)
          to label %11 unwind label %12

11:                                               ; preds = %_ZN2cv7quality13quality_utils10expand_matINS_4UMatEEET_RKNS_11_InputArrayEi.exit
  call void @_ZN2cv4UMatD1Ev(ptr noundef nonnull align 8 dereferenceable(80) %4) #17
  call void @llvm.lifetime.end.p0(i64 80, ptr nonnull %4) #17
  ret void

12:                                               ; preds = %_ZN2cv7quality13quality_utils10expand_matINS_4UMatEEET_RKNS_11_InputArrayEi.exit
  %13 = landingpad { ptr, i32 }
          cleanup
  call void @_ZN2cv4UMatD1Ev(ptr noundef nonnull align 8 dereferenceable(80) %4) #17
  call void @llvm.lifetime.end.p0(i64 80, ptr nonnull %4) #17
  br label %common.resume
}